; Function Attrs: nounwind uwtable
define ptr @l_Lean_Grind_CommRing_Poly_size(ptr noundef %0) local_unnamed_addr #1 {
  %2 = ptrtoint ptr %0 to i64
  %3 = and i64 %2, 1
  %.not.i24 = icmp eq i64 %3, 0
  br i1 %.not.i24, label %7, label %4

4:                                                ; preds = %1
  %5 = lshr i64 %2, 1
  %6 = trunc i64 %5 to i32
  br label %lean_obj_tag.exit

7:                                                ; preds = %1
  %8 = getelementptr i8, ptr %0, i64 4
  %.val.i = load i32, ptr %8, align 4
  %9 = lshr i32 %.val.i, 24
  br label %lean_obj_tag.exit

lean_obj_tag.exit:                                ; preds = %4, %7
  %.0.i25 = phi i32 [ %6, %4 ], [ %9, %7 ]
  %10 = icmp eq i32 %.0.i25, 0
  br i1 %10, label %lean_dec.exit, label %11

11:                                               ; preds = %lean_obj_tag.exit
  %12 = getelementptr inbounds nuw i8, ptr %0, i64 16
  %13 = load ptr, ptr %12, align 8, !tbaa !6
  %14 = getelementptr inbounds nuw i8, ptr %0, i64 24
  %15 = load ptr, ptr %14, align 8, !tbaa !6
  %16 = tail call ptr @l_Lean_Grind_CommRing_Mon_size(ptr noundef %13)
  %17 = ptrtoint ptr %16 to i64
  %18 = and i64 %17, 1
  %.not = icmp eq i64 %18, 0
  br i1 %.not, label %29, label %19, !prof !4

19:                                               ; preds = %11
  %20 = lshr i64 %17, 1
  %21 = add nuw i64 %20, 1
  %22 = icmp sgt i64 %21, -1
  br i1 %22, label %23, label %27, !prof !5

23:                                               ; preds = %19
  %24 = shl nuw i64 %21, 1
  %25 = or disjoint i64 %24, 1
  %26 = inttoptr i64 %25 to ptr
  br label %lean_dec.exit19

27:                                               ; preds = %19
  %28 = tail call ptr @lean_big_usize_to_nat(i64 noundef range(i64 0, -1) %21) #6
  br label %lean_dec.exit19

29:                                               ; preds = %11
  %30 = tail call ptr @lean_nat_big_add(ptr noundef %16, ptr noundef nonnull inttoptr (i64 3 to ptr)) #6
  %31 = load i32, ptr %16, align 4, !tbaa !10
  %32 = icmp sgt i32 %31, 1
  br i1 %32, label %33, label %35, !prof !5

33:                                               ; preds = %29
  %34 = add nsw i32 %31, -1
  store i32 %34, ptr %16, align 4, !tbaa !10
  br label %lean_dec.exit19

35:                                               ; preds = %29
  %.not.i = icmp eq i32 %31, 0
  br i1 %.not.i, label %lean_dec.exit19, label %36

36:                                               ; preds = %35
  tail call void @lean_dec_ref_cold(ptr noundef nonnull %16) #6
  br label %lean_dec.exit19

lean_dec.exit19:                                  ; preds = %23, %27, %36, %35, %33
  %.0.i1630 = phi ptr [ %30, %33 ], [ %30, %35 ], [ %30, %36 ], [ %28, %27 ], [ %26, %23 ]
  %37 = tail call ptr @l_Lean_Grind_CommRing_Poly_size(ptr noundef %15)
  %38 = ptrtoint ptr %.0.i1630 to i64
  %39 = and i64 %38, 1
  %.not31 = icmp eq i64 %39, 0
  %.pre36 = ptrtoint ptr %37 to i64
  %.pre = and i64 %.pre36, 1
  %40 = icmp eq i64 %.pre, 0
  br i1 %.not31, label %lean_nat_add.exit, label %41, !prof !4

41:                                               ; preds = %lean_dec.exit19
  br i1 %40, label %lean_nat_add.exit.thread40, label %43, !prof !4

lean_nat_add.exit.thread40:                       ; preds = %41
  %42 = tail call ptr @lean_nat_big_add(ptr noundef %.0.i1630, ptr noundef %37) #6
  br label %55

43:                                               ; preds = %41
  %44 = lshr i64 %38, 1
  %45 = lshr i64 %.pre36, 1
  %46 = add nuw i64 %45, %44
  %47 = icmp sgt i64 %46, -1
  br i1 %47, label %48, label %52, !prof !5

48:                                               ; preds = %43
  %49 = shl nuw i64 %46, 1
  %50 = or disjoint i64 %49, 1
  %51 = inttoptr i64 %50 to ptr
  br label %lean_dec.exit

52:                                               ; preds = %43
  %53 = tail call ptr @lean_big_usize_to_nat(i64 noundef range(i64 0, -1) %46) #6
  br label %lean_dec.exit

lean_nat_add.exit:                                ; preds = %lean_dec.exit19
  %54 = tail call ptr @lean_nat_big_add(ptr noundef %.0.i1630, ptr noundef %37) #6
  br i1 %40, label %55, label %lean_dec.exit18.thread

55:                                               ; preds = %lean_nat_add.exit.thread40, %lean_nat_add.exit
  %56 = phi ptr [ %42, %lean_nat_add.exit.thread40 ], [ %54, %lean_nat_add.exit ]
  %57 = load i32, ptr %37, align 4, !tbaa !10
  %58 = icmp sgt i32 %57, 1
  br i1 %58, label %59, label %61, !prof !5

59:                                               ; preds = %55
  %60 = add nsw i32 %57, -1
  store i32 %60, ptr %37, align 4, !tbaa !10
  br label %lean_dec.exit18

61:                                               ; preds = %55
  %.not.i20 = icmp eq i32 %57, 0
  br i1 %.not.i20, label %lean_dec.exit18, label %62

62:                                               ; preds = %61
  tail call void @lean_dec_ref_cold(ptr noundef nonnull %37) #6
  br label %lean_dec.exit18

lean_dec.exit18:                                  ; preds = %62, %61, %59
  br i1 %.not31, label %lean_dec.exit18.thread, label %lean_dec.exit

lean_dec.exit18.thread:                           ; preds = %lean_nat_add.exit, %lean_dec.exit18
  %.0.i3943 = phi ptr [ %56, %lean_dec.exit18 ], [ %54, %lean_nat_add.exit ]
  %63 = load i32, ptr %.0.i1630, align 4, !tbaa !10
  %64 = icmp sgt i32 %63, 1
  br i1 %64, label %65, label %67, !prof !5

65:                                               ; preds = %lean_dec.exit18.thread
  %66 = add nsw i32 %63, -1
  store i32 %66, ptr %.0.i1630, align 4, !tbaa !10
  br label %lean_dec.exit

67:                                               ; preds = %lean_dec.exit18.thread
  %.not.i22 = icmp eq i32 %63, 0
  br i1 %.not.i22, label %lean_dec.exit, label %68

68:                                               ; preds = %67
  tail call void @lean_dec_ref_cold(ptr noundef nonnull %.0.i1630) #6
  br label %lean_dec.exit

lean_dec.exit:                                    ; preds = %52, %48, %lean_dec.exit18, %65, %67, %68, %lean_obj_tag.exit
  %.0 = phi ptr [ inttoptr (i64 3 to ptr), %lean_obj_tag.exit ], [ %.0.i3943, %68 ], [ %.0.i3943, %67 ], [ %.0.i3943, %65 ], [ %56, %lean_dec.exit18 ], [ %51, %48 ], [ %53, %52 ]
  ret ptr %.0
}